target datalayout = "e-m:e-p270:32:32-p271:32:32-p272:64:64-i64:64-i128:128-f80:128-n8:16:32:64-S128"
target triple = "x86_64-pc-linux-gnu"

%struct.TypeCacheEntry = type { i32, i32, i16, i8, i8, i8, i8, i32, i32, i32, i32, i32, i32, i32, i32, i32, i32, i32, i32, i32, i32, %struct.FmgrInfo, %struct.FmgrInfo, %struct.FmgrInfo, %struct.FmgrInfo, ptr, i64, ptr, i32, i32, %struct.FmgrInfo, %struct.FmgrInfo, %struct.FmgrInfo, ptr, i32, i32, ptr, i32, ptr, ptr }
%struct.FmgrInfo = type { ptr, i32, i16, i8, i8, i8, ptr, ptr, ptr }
%struct.DomainConstraintCache = type { ptr, ptr, i64 }
%struct.DomainConstraintState = type { i32, i32, ptr, ptr, ptr }
%struct.DomainConstraintRef = type { ptr, ptr, ptr, i8, ptr, %struct.MemoryContextCallback }
%struct.MemoryContextCallback = type { ptr, ptr, ptr }
%struct.ForEachState = type { ptr, i32 }
%struct.List = type { i32, i32, i32, ptr, [0 x %union.ListCell] }
%union.ListCell = type { ptr }
%struct.Node = type { i32 }

@CurrentMemoryContext = external global ptr, align 8

; Function Attrs: inlinehint nounwind uwtable
define internal ptr @newNode(i64 noundef %0, i32 noundef %1) #3 {
  %3 = alloca i64, align 8
  %4 = alloca i32, align 4
  %5 = alloca ptr, align 8
  store i64 %0, ptr %3, align 8
  store i32 %1, ptr %4, align 4
  call void @llvm.lifetime.start.p0(i64 8, ptr %5) #11
  %6 = load i64, ptr %3, align 8
  %7 = call ptr @palloc0(i64 noundef %6)
  store ptr %7, ptr %5, align 8
  %8 = load i32, ptr %4, align 4
  %9 = load ptr, ptr %5, align 8
  %10 = getelementptr inbounds nuw %struct.Node, ptr %9, i32 0, i32 0
  store i32 %8, ptr %10, align 4
  %11 = load ptr, ptr %5, align 8
  call void @llvm.lifetime.end.p0(i64 8, ptr %5) #11
  ret ptr %11
}

; Function Attrs: inlinehint nounwind uwtable
define internal ptr @MemoryContextSwitchTo(ptr noundef %0) #3 {
  %2 = alloca ptr, align 8
  %3 = alloca ptr, align 8
  store ptr %0, ptr %2, align 8
  call void @llvm.lifetime.start.p0(i64 8, ptr %3) #11
  %4 = load ptr, ptr @CurrentMemoryContext, align 8
  store ptr %4, ptr %3, align 8
  %5 = load ptr, ptr %2, align 8
  store ptr %5, ptr @CurrentMemoryContext, align 8
  %6 = load ptr, ptr %3, align 8
  call void @llvm.lifetime.end.p0(i64 8, ptr %3) #11
  ret ptr %6
}

; Function Attrs: nounwind uwtable
define internal ptr @prep_domain_constraints(ptr noundef %0, ptr noundef %1) #0 {
  %3 = alloca ptr, align 8
  %4 = alloca ptr, align 8
  %5 = alloca ptr, align 8
  %6 = alloca ptr, align 8
  %7 = alloca ptr, align 8
  %8 = alloca %struct.ForEachState, align 8
  %9 = alloca ptr, align 8
  %10 = alloca ptr, align 8
  store ptr %0, ptr %3, align 8
  store ptr %1, ptr %4, align 8
  call void @llvm.lifetime.start.p0(i64 8, ptr %5) #11
  store ptr null, ptr %5, align 8
  call void @llvm.lifetime.start.p0(i64 8, ptr %6) #11
  call void @llvm.lifetime.start.p0(i64 8, ptr %7) #11
  %11 = load ptr, ptr %4, align 8
  %12 = call ptr @MemoryContextSwitchTo(ptr noundef %11)
  store ptr %12, ptr %6, align 8
  call void @llvm.lifetime.start.p0(i64 16, ptr %8) #11
  %13 = getelementptr inbounds nuw %struct.ForEachState, ptr %8, i32 0, i32 0
  %14 = load ptr, ptr %3, align 8
  store ptr %14, ptr %13, align 8
  %15 = getelementptr inbounds nuw %struct.ForEachState, ptr %8, i32 0, i32 1
  store i32 0, ptr %15, align 8
  %16 = getelementptr i8, ptr %8, i64 12
  call void @llvm.memset.p0.i64(ptr align 4 %16, i8 0, i64 4, i1 false)
  br label %17

17:                                               ; preds = %71, %2
  %18 = getelementptr inbounds nuw %struct.ForEachState, ptr %8, i32 0, i32 0
  %19 = load ptr, ptr %18, align 8
  %20 = icmp ne ptr %19, null
  br i1 %20, label %21, label %38

21:                                               ; preds = %17
  %22 = getelementptr inbounds nuw %struct.ForEachState, ptr %8, i32 0, i32 1
  %23 = load i32, ptr %22, align 8
  %24 = getelementptr inbounds nuw %struct.ForEachState, ptr %8, i32 0, i32 0
  %25 = load ptr, ptr %24, align 8
  %26 = getelementptr inbounds nuw %struct.List, ptr %25, i32 0, i32 1
  %27 = load i32, ptr %26, align 4
  %28 = icmp slt i32 %23, %27
  br i1 %28, label %29, label %38

29:                                               ; preds = %21
  %30 = getelementptr inbounds nuw %struct.ForEachState, ptr %8, i32 0, i32 0
  %31 = load ptr, ptr %30, align 8
  %32 = getelementptr inbounds nuw %struct.List, ptr %31, i32 0, i32 3
  %33 = load ptr, ptr %32, align 8
  %34 = getelementptr inbounds nuw %struct.ForEachState, ptr %8, i32 0, i32 1
  %35 = load i32, ptr %34, align 8
  %36 = sext i32 %35 to i64
  %37 = getelementptr inbounds %union.ListCell, ptr %33, i64 %36
  store ptr %37, ptr %7, align 8
  br label %39

38:                                               ; preds = %21, %17
  store ptr null, ptr %7, align 8
  br label %39

39:                                               ; preds = %38, %29
  %40 = phi i32 [ 1, %29 ], [ 0, %38 ]
  %41 = icmp ne i32 %40, 0
  br i1 %41, label %43, label %42

42:                                               ; preds = %39
  call void @llvm.lifetime.end.p0(i64 16, ptr %8) #11
  br label %75

43:                                               ; preds = %39
  call void @llvm.lifetime.start.p0(i64 8, ptr %9) #11
  %44 = load ptr, ptr %7, align 8
  %45 = load ptr, ptr %44, align 8
  store ptr %45, ptr %9, align 8
  call void @llvm.lifetime.start.p0(i64 8, ptr %10) #11
  %46 = call ptr @newNode(i64 noundef 32, i32 noundef 392)
  store ptr %46, ptr %10, align 8
  %47 = load ptr, ptr %9, align 8
  %48 = getelementptr inbounds nuw %struct.DomainConstraintState, ptr %47, i32 0, i32 1
  %49 = load i32, ptr %48, align 4
  %50 = load ptr, ptr %10, align 8
  %51 = getelementptr inbounds nuw %struct.DomainConstraintState, ptr %50, i32 0, i32 1
  store i32 %49, ptr %51, align 4
  %52 = load ptr, ptr %9, align 8
  %53 = getelementptr inbounds nuw %struct.DomainConstraintState, ptr %52, i32 0, i32 2
  %54 = load ptr, ptr %53, align 8
  %55 = load ptr, ptr %10, align 8
  %56 = getelementptr inbounds nuw %struct.DomainConstraintState, ptr %55, i32 0, i32 2
  store ptr %54, ptr %56, align 8
  %57 = load ptr, ptr %9, align 8
  %58 = getelementptr inbounds nuw %struct.DomainConstraintState, ptr %57, i32 0, i32 3
  %59 = load ptr, ptr %58, align 8
  %60 = load ptr, ptr %10, align 8
  %61 = getelementptr inbounds nuw %struct.DomainConstraintState, ptr %60, i32 0, i32 3
  store ptr %59, ptr %61, align 8
  %62 = load ptr, ptr %9, align 8
  %63 = getelementptr inbounds nuw %struct.DomainConstraintState, ptr %62, i32 0, i32 3
  %64 = load ptr, ptr %63, align 8
  %65 = call ptr @ExecInitExpr(ptr noundef %64, ptr noundef null)
  %66 = load ptr, ptr %10, align 8
  %67 = getelementptr inbounds nuw %struct.DomainConstraintState, ptr %66, i32 0, i32 4
  store ptr %65, ptr %67, align 8
  %68 = load ptr, ptr %5, align 8
  %69 = load ptr, ptr %10, align 8
  %70 = call ptr @lappend(ptr noundef %68, ptr noundef %69)
  store ptr %70, ptr %5, align 8
  call void @llvm.lifetime.end.p0(i64 8, ptr %10) #11
  call void @llvm.lifetime.end.p0(i64 8, ptr %9) #11
  br label %71

71:                                               ; preds = %43
  %72 = getelementptr inbounds nuw %struct.ForEachState, ptr %8, i32 0, i32 1
  %73 = load i32, ptr %72, align 8
  %74 = add i32 %73, 1
  store i32 %74, ptr %72, align 8
  br label %17, !llvm.loop !15

75:                                               ; preds = %42
  %76 = load ptr, ptr %6, align 8
  %77 = call ptr @MemoryContextSwitchTo(ptr noundef %76)
  %78 = load ptr, ptr %5, align 8
  call void @llvm.lifetime.end.p0(i64 8, ptr %7) #11
  call void @llvm.lifetime.end.p0(i64 8, ptr %6) #11
  call void @llvm.lifetime.end.p0(i64 8, ptr %5) #11
  ret ptr %78
}

; Function Attrs: nounwind uwtable
define dso_local void @InitDomainConstraintRef(i32 noundef %0, ptr noundef %1, ptr noundef %2, i1 noundef zeroext %3) #0 {
  %5 = alloca i32, align 4
  %6 = alloca ptr, align 8
  %7 = alloca ptr, align 8
  %8 = alloca i8, align 1
  store i32 %0, ptr %5, align 4
  store ptr %1, ptr %6, align 8
  store ptr %2, ptr %7, align 8
  %9 = zext i1 %3 to i8
  store i8 %9, ptr %8, align 1
  %10 = load i32, ptr %5, align 4
  %11 = call ptr @lookup_type_cache(i32 noundef %10, i32 noundef 8192)
  %12 = load ptr, ptr %6, align 8
  %13 = getelementptr inbounds nuw %struct.DomainConstraintRef, ptr %12, i32 0, i32 2
  store ptr %11, ptr %13, align 8
  %14 = load i8, ptr %8, align 1, !range !4, !noundef !5
  %15 = trunc i8 %14 to i1
  %16 = load ptr, ptr %6, align 8
  %17 = getelementptr inbounds nuw %struct.DomainConstraintRef, ptr %16, i32 0, i32 3
  %18 = zext i1 %15 to i8
  store i8 %18, ptr %17, align 8
  %19 = load ptr, ptr %7, align 8
  %20 = load ptr, ptr %6, align 8
  %21 = getelementptr inbounds nuw %struct.DomainConstraintRef, ptr %20, i32 0, i32 1
  store ptr %19, ptr %21, align 8
  %22 = load ptr, ptr %6, align 8
  %23 = getelementptr inbounds nuw %struct.DomainConstraintRef, ptr %22, i32 0, i32 4
  store ptr null, ptr %23, align 8
  %24 = load ptr, ptr %6, align 8
  %25 = getelementptr inbounds nuw %struct.DomainConstraintRef, ptr %24, i32 0, i32 5
  %26 = getelementptr inbounds nuw %struct.MemoryContextCallback, ptr %25, i32 0, i32 0
  store ptr @dccref_deletion_callback, ptr %26, align 8
  %27 = load ptr, ptr %6, align 8
  %28 = load ptr, ptr %6, align 8
  %29 = getelementptr inbounds nuw %struct.DomainConstraintRef, ptr %28, i32 0, i32 5
  %30 = getelementptr inbounds nuw %struct.MemoryContextCallback, ptr %29, i32 0, i32 1
  store ptr %27, ptr %30, align 8
  %31 = load ptr, ptr %7, align 8
  %32 = load ptr, ptr %6, align 8
  %33 = getelementptr inbounds nuw %struct.DomainConstraintRef, ptr %32, i32 0, i32 5
  call void @MemoryContextRegisterResetCallback(ptr noundef %31, ptr noundef %33)
  %34 = load ptr, ptr %6, align 8
  %35 = getelementptr inbounds nuw %struct.DomainConstraintRef, ptr %34, i32 0, i32 2
  %36 = load ptr, ptr %35, align 8
  %37 = getelementptr inbounds nuw %struct.TypeCacheEntry, ptr %36, i32 0, i32 36
  %38 = load ptr, ptr %37, align 8
  %39 = icmp ne ptr %38, null
  br i1 %39, label %40, label %79

40:                                               ; preds = %4
  %41 = load ptr, ptr %6, align 8
  %42 = getelementptr inbounds nuw %struct.DomainConstraintRef, ptr %41, i32 0, i32 2
  %43 = load ptr, ptr %42, align 8
  %44 = getelementptr inbounds nuw %struct.TypeCacheEntry, ptr %43, i32 0, i32 36
  %45 = load ptr, ptr %44, align 8
  %46 = load ptr, ptr %6, align 8
  %47 = getelementptr inbounds nuw %struct.DomainConstraintRef, ptr %46, i32 0, i32 4
  store ptr %45, ptr %47, align 8
  %48 = load ptr, ptr %6, align 8
  %49 = getelementptr inbounds nuw %struct.DomainConstraintRef, ptr %48, i32 0, i32 4
  %50 = load ptr, ptr %49, align 8
  %51 = getelementptr inbounds nuw %struct.DomainConstraintCache, ptr %50, i32 0, i32 2
  %52 = load i64, ptr %51, align 8
  %53 = add i64 %52, 1
  store i64 %53, ptr %51, align 8
  %54 = load ptr, ptr %6, align 8
  %55 = getelementptr inbounds nuw %struct.DomainConstraintRef, ptr %54, i32 0, i32 3
  %56 = load i8, ptr %55, align 8, !range !4, !noundef !5
  %57 = trunc i8 %56 to i1
  br i1 %57, label %58, label %70

58:                                               ; preds = %40
  %59 = load ptr, ptr %6, align 8
  %60 = getelementptr inbounds nuw %struct.DomainConstraintRef, ptr %59, i32 0, i32 4
  %61 = load ptr, ptr %60, align 8
  %62 = getelementptr inbounds nuw %struct.DomainConstraintCache, ptr %61, i32 0, i32 0
  %63 = load ptr, ptr %62, align 8
  %64 = load ptr, ptr %6, align 8
  %65 = getelementptr inbounds nuw %struct.DomainConstraintRef, ptr %64, i32 0, i32 1
  %66 = load ptr, ptr %65, align 8
  %67 = call ptr @prep_domain_constraints(ptr noundef %63, ptr noundef %66)
  %68 = load ptr, ptr %6, align 8
  %69 = getelementptr inbounds nuw %struct.DomainConstraintRef, ptr %68, i32 0, i32 0
  store ptr %67, ptr %69, align 8
  br label %78

70:                                               ; preds = %40
  %71 = load ptr, ptr %6, align 8
  %72 = getelementptr inbounds nuw %struct.DomainConstraintRef, ptr %71, i32 0, i32 4
  %73 = load ptr, ptr %72, align 8
  %74 = getelementptr inbounds nuw %struct.DomainConstraintCache, ptr %73, i32 0, i32 0
  %75 = load ptr, ptr %74, align 8
  %76 = load ptr, ptr %6, align 8
  %77 = getelementptr inbounds nuw %struct.DomainConstraintRef, ptr %76, i32 0, i32 0
  store ptr %75, ptr %77, align 8
  br label %78

78:                                               ; preds = %70, %58
  br label %82

79:                                               ; preds = %4
  %80 = load ptr, ptr %6, align 8
  %81 = getelementptr inbounds nuw %struct.DomainConstraintRef, ptr %80, i32 0, i32 0
  store ptr null, ptr %81, align 8
  br label %82

82:                                               ; preds = %79, %78
  ret void
}