; Function Attrs: nounwind uwtable
define dso_local void @InitDomainConstraintRef(i32 noundef %0, ptr noundef initializes((8, 25), (32, 48)) %1, ptr noundef %2, i1 noundef zeroext %3) local_unnamed_addr #0 {
  %5 = zext i1 %3 to i8
  %6 = tail call ptr @lookup_type_cache(i32 noundef %0, i32 noundef 8192)
  %7 = getelementptr inbounds nuw i8, ptr %1, i64 16
  store ptr %6, ptr %7, align 8
  %8 = getelementptr inbounds nuw i8, ptr %1, i64 24
  store i8 %5, ptr %8, align 8
  %9 = getelementptr inbounds nuw i8, ptr %1, i64 8
  store ptr %2, ptr %9, align 8
  %10 = getelementptr inbounds nuw i8, ptr %1, i64 32
  store ptr null, ptr %10, align 8
  %11 = getelementptr inbounds nuw i8, ptr %1, i64 40
  store ptr @dccref_deletion_callback, ptr %11, align 8
  %12 = getelementptr inbounds nuw i8, ptr %1, i64 48
  store ptr %1, ptr %12, align 8
  tail call void @MemoryContextRegisterResetCallback(ptr noundef %2, ptr noundef nonnull %11) #16
  %13 = load ptr, ptr %7, align 8
  %14 = getelementptr inbounds nuw i8, ptr %13, i64 456
  %15 = load ptr, ptr %14, align 8
  %.not = icmp eq ptr %15, null
  br i1 %.not, label %50, label %16

16:                                               ; preds = %4
  store ptr %15, ptr %10, align 8
  %17 = getelementptr inbounds nuw i8, ptr %15, i64 16
  %18 = load i64, ptr %17, align 8
  %19 = add i64 %18, 1
  store i64 %19, ptr %17, align 8
  %20 = load i8, ptr %8, align 8, !range !4, !noundef !5
  %21 = trunc nuw i8 %20 to i1
  %22 = load ptr, ptr %10, align 8
  %23 = load ptr, ptr %22, align 8
  br i1 %21, label %24, label %50

24:                                               ; preds = %16
  %25 = load ptr, ptr %9, align 8
  %26 = load ptr, ptr @CurrentMemoryContext, align 8
  store ptr %25, ptr @CurrentMemoryContext, align 8
  %27 = getelementptr inbounds nuw i8, ptr %23, i64 4
  %.not.i = icmp eq ptr %23, null
  br i1 %.not.i, label %prep_domain_constraints.exit, label %.lr.ph.i

.lr.ph.i:                                         ; preds = %24
  %28 = getelementptr inbounds nuw i8, ptr %23, i64 16
  %29 = load i32, ptr %27, align 4
  %30 = icmp sgt i32 %29, 0
  br i1 %30, label %.lr.ph31.i, label %prep_domain_constraints.exit

.lr.ph31.i:                                       ; preds = %.lr.ph.i, %.lr.ph31.i
  %indvars.iv.i = phi i64 [ %indvars.iv.next.i, %.lr.ph31.i ], [ 0, %.lr.ph.i ]
  %.02529.i = phi ptr [ %46, %.lr.ph31.i ], [ null, %.lr.ph.i ]
  %31 = load ptr, ptr %28, align 8
  %32 = getelementptr inbounds nuw %union.ListCell, ptr %31, i64 %indvars.iv.i
  %33 = load ptr, ptr %32, align 8
  %34 = tail call noundef ptr @palloc0(i64 noundef 32) #16
  store i32 392, ptr %34, align 4
  %35 = getelementptr inbounds nuw i8, ptr %33, i64 4
  %36 = load i32, ptr %35, align 4
  %37 = getelementptr inbounds nuw i8, ptr %34, i64 4
  store i32 %36, ptr %37, align 4
  %38 = getelementptr inbounds nuw i8, ptr %33, i64 8
  %39 = load ptr, ptr %38, align 8
  %40 = getelementptr inbounds nuw i8, ptr %34, i64 8
  store ptr %39, ptr %40, align 8
  %41 = getelementptr inbounds nuw i8, ptr %33, i64 16
  %42 = load ptr, ptr %41, align 8
  %43 = getelementptr inbounds nuw i8, ptr %34, i64 16
  store ptr %42, ptr %43, align 8
  %44 = tail call ptr @ExecInitExpr(ptr noundef %42, ptr noundef null) #16
  %45 = getelementptr inbounds nuw i8, ptr %34, i64 24
  store ptr %44, ptr %45, align 8
  %46 = tail call ptr @lappend(ptr noundef %.02529.i, ptr noundef nonnull %34) #16
  %indvars.iv.next.i = add nuw nsw i64 %indvars.iv.i, 1
  %47 = load i32, ptr %27, align 4
  %48 = sext i32 %47 to i64
  %49 = icmp slt i64 %indvars.iv.next.i, %48
  br i1 %49, label %.lr.ph31.i, label %prep_domain_constraints.exit

prep_domain_constraints.exit:                     ; preds = %.lr.ph31.i, %24, %.lr.ph.i
  %.0.lcssa.i = phi ptr [ null, %24 ], [ null, %.lr.ph.i ], [ %46, %.lr.ph31.i ]
  store ptr %26, ptr @CurrentMemoryContext, align 8
  br label %50

50:                                               ; preds = %4, %16, %prep_domain_constraints.exit
  %.0.lcssa.i.sink = phi ptr [ %.0.lcssa.i, %prep_domain_constraints.exit ], [ %23, %16 ], [ null, %4 ]
  store ptr %.0.lcssa.i.sink, ptr %1, align 8
  ret void
}